; Function Attrs: nounwind uwtable
define double @statevec_calcExpecPauliSum(ptr noundef readonly byval(%struct.Qureg) align 8 captures(none) %0, ptr noundef readonly captures(none) %1, ptr noundef readonly captures(none) %2, i32 noundef %3, ptr noundef readonly byval(%struct.Qureg) align 8 captures(none) %4) local_unnamed_addr #11 {
  %6 = alloca [100 x i32], align 16
  %7 = getelementptr inbounds nuw i8, ptr %0, i64 4
  %8 = load i32, ptr %7, align 4, !tbaa !40
  %.fr22 = freeze i32 %8
  call void @llvm.lifetime.start.p0(i64 400, ptr nonnull %6) #22
  %9 = icmp sgt i32 %.fr22, 0
  br i1 %9, label %.lr.ph.preheader, label %.preheader.thread

.lr.ph.preheader:                                 ; preds = %5
  %wide.trip.count = zext nneg i32 %.fr22 to i64
  br label %.lr.ph

.preheader:                                       ; preds = %.lr.ph
  %10 = icmp sgt i32 %3, 0
  br i1 %10, label %.lr.ph21, label %._crit_edge

.preheader.thread:                                ; preds = %5
  %11 = icmp sgt i32 %3, 0
  br i1 %11, label %statevec_applyPauliProd.exit.i.preheader, label %._crit_edge

.lr.ph21:                                         ; preds = %.preheader
  %wide.trip.count.i.i = zext nneg i32 %.fr22 to i64
  %wide.trip.count34 = zext nneg i32 %3 to i64
  %.sroa.0.0.copyload44 = load i32, ptr %0, align 8
  %.not.i.us = icmp eq i32 %.sroa.0.0.copyload44, 0
  br label %.lr.ph.preheader.i.i.us

statevec_applyPauliProd.exit.i.preheader:         ; preds = %.preheader.thread
  %wide.trip.count29 = zext nneg i32 %3 to i64
  %.sroa.0.0.copyload = load i32, ptr %0, align 8
  %.not.i = icmp eq i32 %.sroa.0.0.copyload, 0
  br label %statevec_applyPauliProd.exit.i

.lr.ph.preheader.i.i.us:                          ; preds = %.lr.ph21, %statevec_calcExpecPauliProd.exit.us
  %indvars.iv31 = phi i64 [ 0, %.lr.ph21 ], [ %indvars.iv.next32, %statevec_calcExpecPauliProd.exit.us ]
  %.01519.us = phi double [ 0.000000e+00, %.lr.ph21 ], [ %40, %statevec_calcExpecPauliProd.exit.us ]
  %12 = getelementptr inbounds nuw double, ptr %2, i64 %indvars.iv31
  %13 = load double, ptr %12, align 8, !tbaa !13
  %14 = mul nuw nsw i64 %indvars.iv31, %wide.trip.count.i.i
  %15 = getelementptr inbounds nuw i32, ptr %1, i64 %14
  tail call void @statevec_cloneQureg(ptr noundef nonnull byval(%struct.Qureg) align 8 %4, ptr noundef nonnull byval(%struct.Qureg) align 8 %0) #22
  br label %.lr.ph.i.i.us

.lr.ph.i.i.us:                                    ; preds = %34, %.lr.ph.preheader.i.i.us
  %indvars.iv.i.i.us = phi i64 [ 0, %.lr.ph.preheader.i.i.us ], [ %indvars.iv.next.i.i.us, %34 ]
  %16 = getelementptr inbounds nuw i32, ptr %15, i64 %indvars.iv.i.i.us
  %17 = load i32, ptr %16, align 4, !tbaa !4
  %18 = icmp eq i32 %17, 1
  br i1 %18, label %19, label %22

19:                                               ; preds = %.lr.ph.i.i.us
  %20 = getelementptr inbounds nuw i32, ptr %6, i64 %indvars.iv.i.i.us
  %21 = load i32, ptr %20, align 4, !tbaa !4
  tail call void @statevec_pauliX(ptr noundef nonnull byval(%struct.Qureg) align 8 %4, i32 noundef %21) #22
  %.pr.i.i.us = load i32, ptr %16, align 4, !tbaa !4
  br label %22

22:                                               ; preds = %19, %.lr.ph.i.i.us
  %23 = phi i32 [ %.pr.i.i.us, %19 ], [ %17, %.lr.ph.i.i.us ]
  %24 = icmp eq i32 %23, 2
  br i1 %24, label %25, label %28

25:                                               ; preds = %22
  %26 = getelementptr inbounds nuw i32, ptr %6, i64 %indvars.iv.i.i.us
  %27 = load i32, ptr %26, align 4, !tbaa !4
  tail call void @statevec_pauliY(ptr noundef nonnull byval(%struct.Qureg) align 8 %4, i32 noundef %27) #22
  %.pre.i.i.us = load i32, ptr %16, align 4, !tbaa !4
  br label %28

28:                                               ; preds = %25, %22
  %29 = phi i32 [ %.pre.i.i.us, %25 ], [ %23, %22 ]
  %30 = icmp eq i32 %29, 3
  br i1 %30, label %31, label %34

31:                                               ; preds = %28
  %32 = getelementptr inbounds nuw i32, ptr %6, i64 %indvars.iv.i.i.us
  %33 = load i32, ptr %32, align 4, !tbaa !4
  tail call void @statevec_phaseShiftByTerm(ptr noundef nonnull byval(%struct.Qureg) align 8 %4, i32 noundef %33, double -1.000000e+00, double 0.000000e+00) #22
  br label %34

34:                                               ; preds = %31, %28
  %indvars.iv.next.i.i.us = add nuw nsw i64 %indvars.iv.i.i.us, 1
  %exitcond.not.i.i.us = icmp eq i64 %indvars.iv.next.i.i.us, %wide.trip.count.i.i
  br i1 %exitcond.not.i.i.us, label %statevec_applyPauliProd.exit.i.loopexit.us, label %.lr.ph.i.i.us

35:                                               ; preds = %statevec_applyPauliProd.exit.i.loopexit.us
  %36 = tail call double @densmatr_calcTotalProb(ptr noundef nonnull byval(%struct.Qureg) align 8 %4) #22
  br label %statevec_calcExpecPauliProd.exit.us

37:                                               ; preds = %statevec_applyPauliProd.exit.i.loopexit.us
  %38 = tail call { double, double } @statevec_calcInnerProduct(ptr noundef nonnull byval(%struct.Qureg) align 8 %4, ptr noundef nonnull byval(%struct.Qureg) align 8 %0) #22
  %39 = extractvalue { double, double } %38, 0
  br label %statevec_calcExpecPauliProd.exit.us

statevec_calcExpecPauliProd.exit.us:              ; preds = %37, %35
  %.0.i.us = phi double [ %36, %35 ], [ %39, %37 ]
  %40 = tail call double @llvm.fmuladd.f64(double %13, double %.0.i.us, double %.01519.us)
  %indvars.iv.next32 = add nuw nsw i64 %indvars.iv31, 1
  %exitcond35.not = icmp eq i64 %indvars.iv.next32, %wide.trip.count34
  br i1 %exitcond35.not, label %._crit_edge, label %.lr.ph.preheader.i.i.us

statevec_applyPauliProd.exit.i.loopexit.us:       ; preds = %34
  br i1 %.not.i.us, label %37, label %35

.lr.ph:                                           ; preds = %.lr.ph.preheader, %.lr.ph
  %indvars.iv = phi i64 [ 0, %.lr.ph.preheader ], [ %indvars.iv.next, %.lr.ph ]
  %41 = getelementptr inbounds nuw [100 x i32], ptr %6, i64 0, i64 %indvars.iv
  %42 = trunc nuw nsw i64 %indvars.iv to i32
  store i32 %42, ptr %41, align 4, !tbaa !4
  %indvars.iv.next = add nuw nsw i64 %indvars.iv, 1
  %exitcond.not = icmp eq i64 %indvars.iv.next, %wide.trip.count
  br i1 %exitcond.not, label %.preheader, label %.lr.ph

._crit_edge:                                      ; preds = %statevec_calcExpecPauliProd.exit, %statevec_calcExpecPauliProd.exit.us, %.preheader.thread, %.preheader
  %.015.lcssa = phi double [ 0.000000e+00, %.preheader ], [ 0.000000e+00, %.preheader.thread ], [ %40, %statevec_calcExpecPauliProd.exit.us ], [ %50, %statevec_calcExpecPauliProd.exit ]
  call void @llvm.lifetime.end.p0(i64 400, ptr nonnull %6) #22
  ret double %.015.lcssa

statevec_applyPauliProd.exit.i:                   ; preds = %statevec_applyPauliProd.exit.i.preheader, %statevec_calcExpecPauliProd.exit
  %indvars.iv26 = phi i64 [ 0, %statevec_applyPauliProd.exit.i.preheader ], [ %indvars.iv.next27, %statevec_calcExpecPauliProd.exit ]
  %.01519 = phi double [ 0.000000e+00, %statevec_applyPauliProd.exit.i.preheader ], [ %50, %statevec_calcExpecPauliProd.exit ]
  %43 = getelementptr inbounds nuw double, ptr %2, i64 %indvars.iv26
  %44 = load double, ptr %43, align 8, !tbaa !13
  tail call void @statevec_cloneQureg(ptr noundef nonnull byval(%struct.Qureg) align 8 %4, ptr noundef nonnull byval(%struct.Qureg) align 8 %0) #22
  br i1 %.not.i, label %47, label %45

45:                                               ; preds = %statevec_applyPauliProd.exit.i
  %46 = tail call double @densmatr_calcTotalProb(ptr noundef nonnull byval(%struct.Qureg) align 8 %4) #22
  br label %statevec_calcExpecPauliProd.exit

47:                                               ; preds = %statevec_applyPauliProd.exit.i
  %48 = tail call { double, double } @statevec_calcInnerProduct(ptr noundef nonnull byval(%struct.Qureg) align 8 %4, ptr noundef nonnull byval(%struct.Qureg) align 8 %0) #22
  %49 = extractvalue { double, double } %48, 0
  br label %statevec_calcExpecPauliProd.exit

statevec_calcExpecPauliProd.exit:                 ; preds = %45, %47
  %.0.i = phi double [ %46, %45 ], [ %49, %47 ]
  %50 = tail call double @llvm.fmuladd.f64(double %44, double %.0.i, double %.01519)
  %indvars.iv.next27 = add nuw nsw i64 %indvars.iv26, 1
  %exitcond30.not = icmp eq i64 %indvars.iv.next27, %wide.trip.count29
  br i1 %exitcond30.not, label %._crit_edge, label %statevec_applyPauliProd.exit.i
}